target datalayout = "e-m:e-p270:32:32-p271:32:32-p272:64:64-i64:64-i128:128-f80:128-n8:16:32:64-S128"
target triple = "x86_64-pc-linux-gnu"

%struct.SurfaceDataRasInfo = type { %struct.SurfaceDataBounds, ptr, i32, i32, i32, i32, ptr, ptr, ptr, ptr, ptr, ptr, i32, %union.anon.0 }
%struct.SurfaceDataBounds = type { i32, i32, i32, i32 }
%union.anon.0 = type { ptr, [56 x i8] }

@mul8table = external global [256 x [256 x i8]], align 16

; Function Attrs: nounwind uwtable
define hidden void @ByteGrayToIntArgbPreConvert(ptr noundef %0, ptr noundef %1, i32 noundef %2, i32 noundef %3, ptr noundef %4, ptr noundef %5, ptr noundef %6, ptr noundef %7) #1 {
  %9 = alloca ptr, align 8
  %10 = alloca ptr, align 8
  %11 = alloca i32, align 4
  %12 = alloca i32, align 4
  %13 = alloca ptr, align 8
  %14 = alloca ptr, align 8
  %15 = alloca ptr, align 8
  %16 = alloca ptr, align 8
  %17 = alloca ptr, align 8
  %18 = alloca ptr, align 8
  %19 = alloca i32, align 4
  %20 = alloca i32, align 4
  %21 = alloca i32, align 4
  %22 = alloca i32, align 4
  %23 = alloca i32, align 4
  %24 = alloca i32, align 4
  %25 = alloca i32, align 4
  %26 = alloca i32, align 4
  %27 = alloca i32, align 4
  store ptr %0, ptr %9, align 8
  store ptr %1, ptr %10, align 8
  store i32 %2, ptr %11, align 4
  store i32 %3, ptr %12, align 4
  store ptr %4, ptr %13, align 8
  store ptr %5, ptr %14, align 8
  store ptr %6, ptr %15, align 8
  store ptr %7, ptr %16, align 8
  br label %28

28:                                               ; preds = %8
  %29 = load ptr, ptr %9, align 8
  store ptr %29, ptr %17, align 8
  %30 = load ptr, ptr %10, align 8
  store ptr %30, ptr %18, align 8
  %31 = load ptr, ptr %13, align 8
  %32 = getelementptr inbounds %struct.SurfaceDataRasInfo, ptr %31, i32 0, i32 4
  %33 = load i32, ptr %32, align 8
  store i32 %33, ptr %19, align 4
  %34 = load ptr, ptr %14, align 8
  %35 = getelementptr inbounds %struct.SurfaceDataRasInfo, ptr %34, i32 0, i32 4
  %36 = load i32, ptr %35, align 8
  store i32 %36, ptr %20, align 4
  %37 = load i32, ptr %11, align 4
  %38 = mul i32 %37, 1
  %39 = load i32, ptr %19, align 4
  %40 = sub i32 %39, %38
  store i32 %40, ptr %19, align 4
  %41 = load i32, ptr %11, align 4
  %42 = mul i32 %41, 4
  %43 = load i32, ptr %20, align 4
  %44 = sub i32 %43, %42
  store i32 %44, ptr %20, align 4
  br label %45

45:                                               ; preds = %150, %28
  %46 = load i32, ptr %11, align 4
  store i32 %46, ptr %21, align 4
  br label %47

47:                                               ; preds = %133, %45
  br label %48

48:                                               ; preds = %47
  br label %49

49:                                               ; preds = %48
  %50 = load ptr, ptr %17, align 8
  %51 = getelementptr inbounds i8, ptr %50, i64 0
  %52 = load i8, ptr %51, align 1
  %53 = zext i8 %52 to i32
  store i32 %53, ptr %23, align 4
  %54 = load i32, ptr %23, align 4
  %55 = or i32 65280, %54
  %56 = shl i32 %55, 8
  %57 = load i32, ptr %23, align 4
  %58 = or i32 %56, %57
  %59 = shl i32 %58, 8
  %60 = load i32, ptr %23, align 4
  %61 = or i32 %59, %60
  store i32 %61, ptr %22, align 4
  br label %62

62:                                               ; preds = %49
  br label %63

63:                                               ; preds = %62
  %64 = load i32, ptr %22, align 4
  %65 = ashr i32 %64, 24
  %66 = add nsw i32 %65, 1
  %67 = icmp eq i32 %66, 0
  br i1 %67, label %68, label %72

68:                                               ; preds = %63
  %69 = load i32, ptr %22, align 4
  %70 = load ptr, ptr %18, align 8
  %71 = getelementptr inbounds i32, ptr %70, i64 0
  store i32 %69, ptr %71, align 4
  br label %122

72:                                               ; preds = %63
  br label %73

73:                                               ; preds = %72
  %74 = load i32, ptr %22, align 4
  %75 = and i32 %74, 255
  store i32 %75, ptr %27, align 4
  %76 = load i32, ptr %22, align 4
  %77 = ashr i32 %76, 8
  %78 = and i32 %77, 255
  store i32 %78, ptr %26, align 4
  %79 = load i32, ptr %22, align 4
  %80 = ashr i32 %79, 16
  %81 = and i32 %80, 255
  store i32 %81, ptr %25, align 4
  %82 = load i32, ptr %22, align 4
  %83 = ashr i32 %82, 24
  %84 = and i32 %83, 255
  store i32 %84, ptr %24, align 4
  br label %85

85:                                               ; preds = %73
  %86 = load i32, ptr %24, align 4
  %87 = sext i32 %86 to i64
  %88 = getelementptr inbounds [256 x [256 x i8]], ptr @mul8table, i64 0, i64 %87
  %89 = load i32, ptr %25, align 4
  %90 = sext i32 %89 to i64
  %91 = getelementptr inbounds [256 x i8], ptr %88, i64 0, i64 %90
  %92 = load i8, ptr %91, align 1
  %93 = zext i8 %92 to i32
  store i32 %93, ptr %25, align 4
  %94 = load i32, ptr %24, align 4
  %95 = sext i32 %94 to i64
  %96 = getelementptr inbounds [256 x [256 x i8]], ptr @mul8table, i64 0, i64 %95
  %97 = load i32, ptr %26, align 4
  %98 = sext i32 %97 to i64
  %99 = getelementptr inbounds [256 x i8], ptr %96, i64 0, i64 %98
  %100 = load i8, ptr %99, align 1
  %101 = zext i8 %100 to i32
  store i32 %101, ptr %26, align 4
  %102 = load i32, ptr %24, align 4
  %103 = sext i32 %102 to i64
  %104 = getelementptr inbounds [256 x [256 x i8]], ptr @mul8table, i64 0, i64 %103
  %105 = load i32, ptr %27, align 4
  %106 = sext i32 %105 to i64
  %107 = getelementptr inbounds [256 x i8], ptr %104, i64 0, i64 %106
  %108 = load i8, ptr %107, align 1
  %109 = zext i8 %108 to i32
  store i32 %109, ptr %27, align 4
  %110 = load i32, ptr %24, align 4
  %111 = shl i32 %110, 8
  %112 = load i32, ptr %25, align 4
  %113 = or i32 %111, %112
  %114 = shl i32 %113, 8
  %115 = load i32, ptr %26, align 4
  %116 = or i32 %114, %115
  %117 = shl i32 %116, 8
  %118 = load i32, ptr %27, align 4
  %119 = or i32 %117, %118
  %120 = load ptr, ptr %18, align 8
  %121 = getelementptr inbounds i32, ptr %120, i64 0
  store i32 %119, ptr %121, align 4
  br label %122

122:                                              ; preds = %85, %68
  br label %123

123:                                              ; preds = %122
  br label %124

124:                                              ; preds = %123
  %125 = load ptr, ptr %17, align 8
  %126 = ptrtoint ptr %125 to i64
  %127 = add nsw i64 %126, 1
  %128 = inttoptr i64 %127 to ptr
  store ptr %128, ptr %17, align 8
  %129 = load ptr, ptr %18, align 8
  %130 = ptrtoint ptr %129 to i64
  %131 = add nsw i64 %130, 4
  %132 = inttoptr i64 %131 to ptr
  store ptr %132, ptr %18, align 8
  br label %133

133:                                              ; preds = %124
  %134 = load i32, ptr %21, align 4
  %135 = add i32 %134, -1
  store i32 %135, ptr %21, align 4
  %136 = icmp ugt i32 %135, 0
  br i1 %136, label %47, label %137, !llvm.loop !15

137:                                              ; preds = %133
  %138 = load ptr, ptr %17, align 8
  %139 = ptrtoint ptr %138 to i64
  %140 = load i32, ptr %19, align 4
  %141 = sext i32 %140 to i64
  %142 = add nsw i64 %139, %141
  %143 = inttoptr i64 %142 to ptr
  store ptr %143, ptr %17, align 8
  %144 = load ptr, ptr %18, align 8
  %145 = ptrtoint ptr %144 to i64
  %146 = load i32, ptr %20, align 4
  %147 = sext i32 %146 to i64
  %148 = add nsw i64 %145, %147
  %149 = inttoptr i64 %148 to ptr
  store ptr %149, ptr %18, align 8
  br label %150

150:                                              ; preds = %137
  %151 = load i32, ptr %12, align 4
  %152 = add i32 %151, -1
  store i32 %152, ptr %12, align 4
  %153 = icmp ugt i32 %152, 0
  br i1 %153, label %45, label %154, !llvm.loop !16

154:                                              ; preds = %150
  br label %155

155:                                              ; preds = %154
  ret void
}