; Function Attrs: nofree norecurse nosync nounwind memory(readwrite, inaccessiblemem: none) uwtable
define hidden void @ByteGrayToIntArgbPreConvert(ptr noundef %0, ptr noundef %1, i32 noundef %2, i32 noundef %3, ptr nocapture noundef readonly %4, ptr nocapture noundef readonly %5, ptr nocapture readnone %6, ptr nocapture readnone %7) #1 {
  %9 = getelementptr inbounds i8, ptr %4, i64 32
  %10 = load i32, ptr %9, align 8
  %11 = getelementptr inbounds i8, ptr %5, i64 32
  %12 = load i32, ptr %11, align 8
  %13 = sub i32 %10, %2
  %14 = shl i32 %2, 2
  %15 = sub i32 %12, %14
  %16 = sext i32 %13 to i64
  %17 = sext i32 %15 to i64
  br label %18

18:                                               ; preds = %31, %8
  %.039 = phi ptr [ %1, %8 ], [ %35, %31 ]
  %.038 = phi ptr [ %0, %8 ], [ %33, %31 ]
  %.0 = phi i32 [ %3, %8 ], [ %36, %31 ]
  br label %19

19:                                               ; preds = %19, %18
  %.041 = phi i32 [ %2, %18 ], [ %30, %19 ]
  %.140 = phi ptr [ %.039, %18 ], [ %29, %19 ]
  %.1 = phi ptr [ %.038, %18 ], [ %26, %19 ]
  %20 = load i8, ptr %.1, align 1
  %21 = zext i8 %20 to i32
  %22 = mul nuw nsw i32 %21, 65793
  %23 = or disjoint i32 %22, -16777216
  store i32 %23, ptr %.140, align 4
  %24 = ptrtoint ptr %.1 to i64
  %25 = add nsw i64 %24, 1
  %26 = inttoptr i64 %25 to ptr
  %27 = ptrtoint ptr %.140 to i64
  %28 = add nsw i64 %27, 4
  %29 = inttoptr i64 %28 to ptr
  %30 = add i32 %.041, -1
  %.not = icmp eq i32 %30, 0
  br i1 %.not, label %31, label %19, !llvm.loop !15

31:                                               ; preds = %19
  %32 = add nsw i64 %25, %16
  %33 = inttoptr i64 %32 to ptr
  %34 = add nsw i64 %28, %17
  %35 = inttoptr i64 %34 to ptr
  %36 = add i32 %.0, -1
  %.not44 = icmp eq i32 %36, 0
  br i1 %.not44, label %37, label %18, !llvm.loop !16

37:                                               ; preds = %31
  ret void
}